; Function Attrs: mustprogress noinline uwtable
define hidden noundef ptr @_ZN6google8protobuf5Arena18CreateMaybeMessageIN17opencv_tensorflow18FunctionDefLibraryEJEEEPT_PS1_DpOT0_(ptr noundef %0) local_unnamed_addr #16 align 2 personality ptr @__gxx_personality_v0 {
  %2 = icmp eq ptr %0, null
  br i1 %2, label %_ZN6google8protobuf5Arena14InternalHelperIN17opencv_tensorflow18FunctionDefLibraryEE3NewEv.exit, label %6

_ZN6google8protobuf5Arena14InternalHelperIN17opencv_tensorflow18FunctionDefLibraryEE3NewEv.exit: ; preds = %1
  %3 = tail call noalias noundef nonnull dereferenceable(72) ptr @_Znwm(i64 noundef 72) #32
  %4 = getelementptr inbounds nuw i8, ptr %3, i64 8
  store i64 0, ptr %4, align 8, !tbaa !3
  store ptr getelementptr inbounds nuw inrange(-16, 152) (i8, ptr @_ZTVN17opencv_tensorflow18FunctionDefLibraryE, i64 16), ptr %3, align 8, !tbaa !8
  %5 = getelementptr inbounds nuw i8, ptr %3, i64 16
  tail call void @llvm.memset.p0.i64(ptr noundef nonnull align 8 dereferenceable(52) %5, i8 0, i64 52, i1 false)
  br label %_ZN6google8protobuf5Arena21CreateMessageInternalIN17opencv_tensorflow18FunctionDefLibraryEEEPT_PS1_.exit

6:                                                ; preds = %1
  %7 = tail call noundef ptr @_ZN6google8protobuf5Arena23AllocateAlignedWithHookEmPKSt9type_info(ptr noundef nonnull align 8 dereferenceable(32) %0, i64 noundef 72, ptr noundef nonnull @_ZTIN17opencv_tensorflow18FunctionDefLibraryE)
  %8 = getelementptr inbounds nuw i8, ptr %7, i64 8
  %9 = ptrtoint ptr %0 to i64
  store i64 %9, ptr %8, align 8, !tbaa !3
  store ptr getelementptr inbounds nuw inrange(-16, 152) (i8, ptr @_ZTVN17opencv_tensorflow18FunctionDefLibraryE, i64 16), ptr %7, align 8, !tbaa !8
  %10 = getelementptr inbounds nuw i8, ptr %7, i64 16
  store ptr %0, ptr %10, align 8, !tbaa !10
  %11 = getelementptr inbounds nuw i8, ptr %7, i64 24
  tail call void @llvm.memset.p0.i64(ptr noundef nonnull align 8 dereferenceable(16) %11, i8 0, i64 16, i1 false)
  %12 = getelementptr inbounds nuw i8, ptr %7, i64 40
  store ptr %0, ptr %12, align 8, !tbaa !10
  %13 = getelementptr inbounds nuw i8, ptr %7, i64 48
  tail call void @llvm.memset.p0.i64(ptr noundef nonnull align 8 dereferenceable(20) %13, i8 0, i64 20, i1 false)
  br label %_ZN6google8protobuf5Arena21CreateMessageInternalIN17opencv_tensorflow18FunctionDefLibraryEEEPT_PS1_.exit

_ZN6google8protobuf5Arena21CreateMessageInternalIN17opencv_tensorflow18FunctionDefLibraryEEEPT_PS1_.exit: ; preds = %_ZN6google8protobuf5Arena14InternalHelperIN17opencv_tensorflow18FunctionDefLibraryEE3NewEv.exit, %6
  %.0.i = phi ptr [ %3, %_ZN6google8protobuf5Arena14InternalHelperIN17opencv_tensorflow18FunctionDefLibraryEE3NewEv.exit ], [ %7, %6 ]
  ret ptr %.0.i
}